target datalayout = "e-m:e-p270:32:32-p271:32:32-p272:64:64-i64:64-i128:128-f80:128-n8:16:32:64-S128"
target triple = "x86_64-pc-linux-gnu"

%struct.AVCodecParser = type { [7 x i32], i32, ptr, ptr, ptr, ptr }
%struct.AVCodecParserContext = type { ptr, ptr, i64, i64, i64, i32, i32, i64, i64, i64, i64, i32, i32, [4 x i64], [4 x i64], [4 x i64], i32, i64, [4 x i64], i32, i32, i32, i32, [4 x i64], i64, i64, i32, i32, i32, i32, i32, i32, i32, i32, i32 }
%struct.CookParseContext = type { i32 }
%struct.AVCodecContext = type { ptr, i32, i32, ptr, i32, i32, ptr, ptr, ptr, i64, i32, i32, ptr, i32, %struct.AVRational, %struct.AVRational, %struct.AVRational, i32, i32, i32, i32, i32, %struct.AVRational, i32, i32, i32, i32, i32, i32, i32, i32, i32, i32, i32, ptr, ptr, i32, float, float, float, float, float, float, float, float, float, i32, i32, i32, i32, i32, i32, i32, i32, i32, i32, i32, i32, ptr, ptr, ptr, i32, i32, i32, i32, i32, i32, i32, i32, i32, i32, %struct.AVChannelLayout, i32, i32, i32, i32, i32, i32, i32, i32, ptr, i32, i32, i32, float, float, i32, i32, i32, i32, i32, ptr, i64, i64, float, float, i32, i32, ptr, ptr, i32, i32, i32, i32, i32, ptr, ptr, ptr, ptr, i32, i32, [8 x i64], i32, i32, i32, i32, i32, i32, i32, ptr, ptr, i32, i32, i32, i32, i32, i32, i32, i32, i32, i32, ptr, ptr, i32, i32, ptr, ptr, ptr, ptr, i32, i32, i64, i32, i32, i64, ptr, i64, ptr, i32, ptr, i32 }
%struct.AVRational = type { i32, i32 }
%struct.AVChannelLayout = type { i32, i32, %union.anon, ptr }
%union.anon = type { i64 }

@ff_cook_parser = constant %struct.AVCodecParser { [7 x i32] [i32 86036, i32 0, i32 0, i32 0, i32 0, i32 0, i32 0], i32 4, ptr null, ptr @cook_parse, ptr null, ptr null }, align 8

; Function Attrs: nounwind uwtable
define internal i32 @cook_parse(ptr noundef %0, ptr noundef %1, ptr noundef %2, ptr noundef %3, ptr noundef %4, i32 noundef %5) #0 {
  %7 = alloca ptr, align 8
  %8 = alloca ptr, align 8
  %9 = alloca ptr, align 8
  %10 = alloca ptr, align 8
  %11 = alloca ptr, align 8
  %12 = alloca i32, align 4
  %13 = alloca ptr, align 8
  store ptr %0, ptr %7, align 8, !tbaa !4
  store ptr %1, ptr %8, align 8, !tbaa !9
  store ptr %2, ptr %9, align 8, !tbaa !11
  store ptr %3, ptr %10, align 8, !tbaa !14
  store ptr %4, ptr %11, align 8, !tbaa !16
  store i32 %5, ptr %12, align 4, !tbaa !18
  call void @llvm.lifetime.start.p0(i64 8, ptr %13) #3
  %14 = load ptr, ptr %7, align 8, !tbaa !4
  %15 = getelementptr inbounds nuw %struct.AVCodecParserContext, ptr %14, i32 0, i32 0
  %16 = load ptr, ptr %15, align 8, !tbaa !20
  store ptr %16, ptr %13, align 8, !tbaa !24
  %17 = load ptr, ptr %13, align 8, !tbaa !24
  %18 = getelementptr inbounds nuw %struct.CookParseContext, ptr %17, i32 0, i32 0
  %19 = load i32, ptr %18, align 4, !tbaa !26
  %20 = icmp ne i32 %19, 0
  br i1 %20, label %52, label %21

21:                                               ; preds = %6
  %22 = load ptr, ptr %8, align 8, !tbaa !9
  %23 = getelementptr inbounds nuw %struct.AVCodecContext, ptr %22, i32 0, i32 12
  %24 = load ptr, ptr %23, align 8, !tbaa !28
  %25 = icmp ne ptr %24, null
  br i1 %25, label %26, label %52

26:                                               ; preds = %21
  %27 = load ptr, ptr %8, align 8, !tbaa !9
  %28 = getelementptr inbounds nuw %struct.AVCodecContext, ptr %27, i32 0, i32 13
  %29 = load i32, ptr %28, align 8, !tbaa !43
  %30 = icmp sge i32 %29, 8
  br i1 %30, label %31, label %52

31:                                               ; preds = %26
  %32 = load ptr, ptr %8, align 8, !tbaa !9
  %33 = getelementptr inbounds nuw %struct.AVCodecContext, ptr %32, i32 0, i32 71
  %34 = getelementptr inbounds nuw %struct.AVChannelLayout, ptr %33, i32 0, i32 1
  %35 = load i32, ptr %34, align 4, !tbaa !44
  %36 = icmp ne i32 %35, 0
  br i1 %36, label %37, label %52

37:                                               ; preds = %31
  %38 = load ptr, ptr %8, align 8, !tbaa !9
  %39 = getelementptr inbounds nuw %struct.AVCodecContext, ptr %38, i32 0, i32 12
  %40 = load ptr, ptr %39, align 8, !tbaa !28
  %41 = getelementptr inbounds i8, ptr %40, i64 4
  %42 = load i16, ptr %41, align 1, !tbaa !45
  %43 = call zeroext i16 @av_bswap16(i16 noundef zeroext %42) #4
  %44 = zext i16 %43 to i32
  %45 = load ptr, ptr %8, align 8, !tbaa !9
  %46 = getelementptr inbounds nuw %struct.AVCodecContext, ptr %45, i32 0, i32 71
  %47 = getelementptr inbounds nuw %struct.AVChannelLayout, ptr %46, i32 0, i32 1
  %48 = load i32, ptr %47, align 4, !tbaa !44
  %49 = sdiv i32 %44, %48
  %50 = load ptr, ptr %13, align 8, !tbaa !24
  %51 = getelementptr inbounds nuw %struct.CookParseContext, ptr %50, i32 0, i32 0
  store i32 %49, ptr %51, align 4, !tbaa !26
  br label %52

52:                                               ; preds = %37, %31, %26, %21, %6
  %53 = load ptr, ptr %13, align 8, !tbaa !24
  %54 = getelementptr inbounds nuw %struct.CookParseContext, ptr %53, i32 0, i32 0
  %55 = load i32, ptr %54, align 4, !tbaa !26
  %56 = load ptr, ptr %7, align 8, !tbaa !4
  %57 = getelementptr inbounds nuw %struct.AVCodecParserContext, ptr %56, i32 0, i32 26
  store i32 %55, ptr %57, align 8, !tbaa !46
  %58 = load ptr, ptr %11, align 8, !tbaa !16
  %59 = load ptr, ptr %9, align 8, !tbaa !11
  store ptr %58, ptr %59, align 8, !tbaa !16
  %60 = load i32, ptr %12, align 4, !tbaa !18
  %61 = load ptr, ptr %10, align 8, !tbaa !14
  store i32 %60, ptr %61, align 4, !tbaa !18
  %62 = load i32, ptr %12, align 4, !tbaa !18
  call void @llvm.lifetime.end.p0(i64 8, ptr %13) #3
  ret i32 %62
}

; Function Attrs: nocallback nofree nosync nounwind willreturn memory(argmem: readwrite)
declare void @llvm.lifetime.start.p0(i64 immarg, ptr captures(none)) #1

; Function Attrs: alwaysinline nounwind willreturn memory(none) uwtable
define internal zeroext i16 @av_bswap16(i16 noundef zeroext %0) #2 {
  %2 = alloca i16, align 2
  store i16 %0, ptr %2, align 2, !tbaa !47
  %3 = load i16, ptr %2, align 2, !tbaa !47
  %4 = zext i16 %3 to i32
  %5 = ashr i32 %4, 8
  %6 = load i16, ptr %2, align 2, !tbaa !47
  %7 = zext i16 %6 to i32
  %8 = shl i32 %7, 8
  %9 = or i32 %5, %8
  %10 = trunc i32 %9 to i16
  store i16 %10, ptr %2, align 2, !tbaa !47
  %11 = load i16, ptr %2, align 2, !tbaa !47
  ret i16 %11
}

; Function Attrs: nocallback nofree nosync nounwind willreturn memory(argmem: readwrite)
declare void @llvm.lifetime.end.p0(i64 immarg, ptr captures(none)) #1


!llvm.module.flags = !{!0, !1, !2, !3}

!0 = !{i32 1, !"wchar_size", i32 4}
!1 = !{i32 8, !"PIC Level", i32 2}
!2 = !{i32 7, !"uwtable", i32 2}
!3 = !{i32 1, !"override-stack-alignment", i32 16}
!4 = !{!5, !5, i64 0}
!5 = !{!"p1 _ZTS20AVCodecParserContext", !6, i64 0}
!6 = !{!"any pointer", !7, i64 0}
!7 = !{!"omnipotent char", !8, i64 0}
!8 = !{!"Simple C/C++ TBAA"}
!9 = !{!10, !10, i64 0}
!10 = !{!"p1 _ZTS14AVCodecContext", !6, i64 0}
!11 = !{!12, !12, i64 0}
!12 = !{!"p2 omnipotent char", !13, i64 0}
!13 = !{!"any p2 pointer", !6, i64 0}
!14 = !{!15, !15, i64 0}
!15 = !{!"p1 int", !6, i64 0}
!16 = !{!17, !17, i64 0}
!17 = !{!"p1 omnipotent char", !6, i64 0}
!18 = !{!19, !19, i64 0}
!19 = !{!"int", !7, i64 0}
!20 = !{!21, !6, i64 0}
!21 = !{!"AVCodecParserContext", !6, i64 0, !22, i64 8, !23, i64 16, !23, i64 24, !23, i64 32, !19, i64 40, !19, i64 44, !23, i64 48, !23, i64 56, !23, i64 64, !23, i64 72, !19, i64 80, !19, i64 84, !7, i64 88, !7, i64 120, !7, i64 152, !19, i64 184, !23, i64 192, !7, i64 200, !19, i64 232, !19, i64 236, !19, i64 240, !19, i64 244, !7, i64 248, !23, i64 280, !23, i64 288, !19, i64 296, !19, i64 300, !19, i64 304, !19, i64 308, !19, i64 312, !19, i64 316, !19, i64 320, !19, i64 324, !19, i64 328}
!22 = !{!"p1 _ZTS13AVCodecParser", !6, i64 0}
!23 = !{!"long", !7, i64 0}
!24 = !{!25, !25, i64 0}
!25 = !{!"p1 _ZTS16CookParseContext", !6, i64 0}
!26 = !{!27, !19, i64 0}
!27 = !{!"CookParseContext", !19, i64 0}
!28 = !{!29, !17, i64 72}
!29 = !{!"AVCodecContext", !30, i64 0, !19, i64 8, !19, i64 12, !31, i64 16, !19, i64 24, !19, i64 28, !6, i64 32, !32, i64 40, !6, i64 48, !23, i64 56, !19, i64 64, !19, i64 68, !17, i64 72, !19, i64 80, !33, i64 84, !33, i64 92, !33, i64 100, !19, i64 108, !19, i64 112, !19, i64 116, !19, i64 120, !19, i64 124, !33, i64 128, !19, i64 136, !19, i64 140, !19, i64 144, !19, i64 148, !19, i64 152, !19, i64 156, !19, i64 160, !19, i64 164, !19, i64 168, !19, i64 172, !19, i64 176, !6, i64 184, !6, i64 192, !19, i64 200, !34, i64 204, !34, i64 208, !34, i64 212, !34, i64 216, !34, i64 220, !34, i64 224, !34, i64 228, !34, i64 232, !34, i64 236, !19, i64 240, !19, i64 244, !19, i64 248, !19, i64 252, !19, i64 256, !19, i64 260, !19, i64 264, !19, i64 268, !19, i64 272, !19, i64 276, !19, i64 280, !19, i64 284, !35, i64 288, !35, i64 296, !35, i64 304, !19, i64 312, !19, i64 316, !19, i64 320, !19, i64 324, !19, i64 328, !19, i64 332, !19, i64 336, !19, i64 340, !19, i64 344, !19, i64 348, !36, i64 352, !19, i64 376, !19, i64 380, !19, i64 384, !19, i64 388, !19, i64 392, !19, i64 396, !19, i64 400, !19, i64 404, !6, i64 408, !19, i64 416, !19, i64 420, !19, i64 424, !34, i64 428, !34, i64 432, !19, i64 436, !19, i64 440, !19, i64 444, !19, i64 448, !19, i64 452, !37, i64 456, !23, i64 464, !23, i64 472, !34, i64 480, !34, i64 484, !19, i64 488, !19, i64 492, !17, i64 496, !17, i64 504, !19, i64 512, !19, i64 516, !19, i64 520, !19, i64 524, !19, i64 528, !38, i64 536, !6, i64 544, !39, i64 552, !39, i64 560, !19, i64 568, !19, i64 572, !7, i64 576, !19, i64 640, !19, i64 644, !19, i64 648, !19, i64 652, !19, i64 656, !19, i64 660, !19, i64 664, !6, i64 672, !6, i64 680, !19, i64 688, !19, i64 692, !19, i64 696, !19, i64 700, !19, i64 704, !19, i64 708, !19, i64 712, !19, i64 716, !19, i64 720, !19, i64 724, !40, i64 728, !17, i64 736, !19, i64 744, !19, i64 748, !17, i64 752, !17, i64 760, !17, i64 768, !41, i64 776, !19, i64 784, !19, i64 788, !23, i64 792, !19, i64 800, !19, i64 804, !23, i64 808, !6, i64 816, !23, i64 824, !15, i64 832, !19, i64 840, !42, i64 848, !19, i64 856}
!30 = !{!"p1 _ZTS7AVClass", !6, i64 0}
!31 = !{!"p1 _ZTS7AVCodec", !6, i64 0}
!32 = !{!"p1 _ZTS15AVCodecInternal", !6, i64 0}
!33 = !{!"AVRational", !19, i64 0, !19, i64 4}
!34 = !{!"float", !7, i64 0}
!35 = !{!"p1 short", !6, i64 0}
!36 = !{!"AVChannelLayout", !19, i64 0, !19, i64 4, !7, i64 8, !6, i64 16}
!37 = !{!"p1 _ZTS10RcOverride", !6, i64 0}
!38 = !{!"p1 _ZTS9AVHWAccel", !6, i64 0}
!39 = !{!"p1 _ZTS11AVBufferRef", !6, i64 0}
!40 = !{!"p1 _ZTS17AVCodecDescriptor", !6, i64 0}
!41 = !{!"p1 _ZTS16AVPacketSideData", !6, i64 0}
!42 = !{!"p2 _ZTS15AVFrameSideData", !13, i64 0}
!43 = !{!29, !19, i64 80}
!44 = !{!29, !19, i64 356}
!45 = !{!7, !7, i64 0}
!46 = !{!21, !19, i64 296}
!47 = !{!48, !48, i64 0}
!48 = !{!"short", !7, i64 0}
